target datalayout = "e-m:e-p270:32:32-p271:32:32-p272:64:64-i64:64-i128:128-f80:128-n8:16:32:64-S128"
target triple = "x86_64-pc-linux-gnu"

%"class.rc::Gen.0" = type { ptr, %"class.std::__cxx11::basic_string" }
%"class.std::__cxx11::basic_string" = type { %"struct.std::__cxx11::basic_string<char>::_Alloc_hider", i64, %union.anon }
%"struct.std::__cxx11::basic_string<char>::_Alloc_hider" = type { ptr }
%union.anon = type { i64, [8 x i8] }
%"class.rc::Gen" = type { ptr, %"class.std::__cxx11::basic_string" }
%"struct.nix::NixStringContextElem::DrvDeep" = type { %"class.nix::StorePath" }
%"class.nix::StorePath" = type { %"class.std::__cxx11::basic_string" }

; Function Attrs: mustprogress uwtable
define void @_ZN2rc9ArbitraryIN3nix20NixStringContextElem7DrvDeepEvE9arbitraryEv(ptr dead_on_unwind noalias writable sret(%"class.rc::Gen") align 8 %0) #5 align 2 personality ptr @__gxx_personality_v0 {
  %2 = alloca ptr, align 8
  %3 = alloca %"struct.nix::NixStringContextElem::DrvDeep", align 8
  %4 = alloca %"class.rc::Gen.0", align 8
  %5 = alloca ptr, align 8
  %6 = alloca i32, align 4
  store ptr %0, ptr %2, align 8
  %7 = getelementptr inbounds %"struct.nix::NixStringContextElem::DrvDeep", ptr %3, i32 0, i32 0
  call void @_ZN2rc3gen9arbitraryIN3nix9StorePathEEEDTclsr9ArbitraryIT_EE9arbitraryEEv(ptr dead_on_unwind writable sret(%"class.rc::Gen.0") align 8 %4)
  invoke void @_ZNK2rc3GenIN3nix9StorePathEEdeEv(ptr dead_on_unwind writable sret(%"class.nix::StorePath") align 8 %7, ptr noundef nonnull align 8 dereferenceable(40) %4)
          to label %8 unwind label %10

8:                                                ; preds = %1
  invoke void @_ZN2rc3gen4justIN3nix20NixStringContextElem7DrvDeepEEENS_3GenINSt5decayIT_E4typeEEEOS7_(ptr dead_on_unwind writable sret(%"class.rc::Gen") align 8 %0, ptr noundef nonnull align 8 dereferenceable(32) %3)
          to label %9 unwind label %14

9:                                                ; preds = %8
  call void @_ZN3nix20NixStringContextElem7DrvDeepD2Ev(ptr noundef nonnull align 8 dereferenceable(32) %3) #3
  call void @_ZN2rc3GenIN3nix9StorePathEED2Ev(ptr noundef nonnull align 8 dereferenceable(40) %4) #3
  ret void

10:                                               ; preds = %1
  %11 = landingpad { ptr, i32 }
          cleanup
  %12 = extractvalue { ptr, i32 } %11, 0
  store ptr %12, ptr %5, align 8
  %13 = extractvalue { ptr, i32 } %11, 1
  store i32 %13, ptr %6, align 4
  br label %18

14:                                               ; preds = %8
  %15 = landingpad { ptr, i32 }
          cleanup
  %16 = extractvalue { ptr, i32 } %15, 0
  store ptr %16, ptr %5, align 8
  %17 = extractvalue { ptr, i32 } %15, 1
  store i32 %17, ptr %6, align 4
  call void @_ZN3nix20NixStringContextElem7DrvDeepD2Ev(ptr noundef nonnull align 8 dereferenceable(32) %3) #3
  br label %18

18:                                               ; preds = %14, %10
  call void @_ZN2rc3GenIN3nix9StorePathEED2Ev(ptr noundef nonnull align 8 dereferenceable(40) %4) #3
  br label %19

19:                                               ; preds = %18
  %20 = load ptr, ptr %5, align 8
  %21 = load i32, ptr %6, align 4
  %22 = insertvalue { ptr, i32 } poison, ptr %20, 0
  %23 = insertvalue { ptr, i32 } %22, i32 %21, 1
  resume { ptr, i32 } %23
}