; Function Attrs: mustprogress uwtable
define void @_ZN2rc9ArbitraryIN3nix20NixStringContextElem7DrvDeepEvE9arbitraryEv(ptr dead_on_unwind noalias writable sret(%"class.rc::Gen") align 8 %0) local_unnamed_addr #4 align 2 personality ptr @__gxx_personality_v0 {
  %2 = alloca %"struct.nix::NixStringContextElem::DrvDeep", align 8
  %3 = alloca %"class.rc::Gen.0", align 8
  call void @_ZN2rc3gen9arbitraryIN3nix9StorePathEEEDTclsr9ArbitraryIT_EE9arbitraryEEv(ptr dead_on_unwind nonnull writable sret(%"class.rc::Gen.0") align 8 %3)
  invoke void @_ZNK2rc3GenIN3nix9StorePathEEdeEv(ptr dead_on_unwind nonnull writable sret(%"class.nix::StorePath") align 8 %2, ptr noundef nonnull align 8 dereferenceable(40) %3)
          to label %4 unwind label %28

4:                                                ; preds = %1
  invoke void @_ZN2rc3gen4justIN3nix20NixStringContextElem7DrvDeepEEENS_3GenINSt5decayIT_E4typeEEEOS7_(ptr dead_on_unwind writable sret(%"class.rc::Gen") align 8 %0, ptr noundef nonnull align 8 dereferenceable(32) %2)
          to label %5 unwind label %30

5:                                                ; preds = %4
  %6 = load ptr, ptr %2, align 8
  %7 = getelementptr inbounds i8, ptr %2, i64 16
  %8 = icmp eq ptr %6, %7
  br i1 %8, label %_ZNKSt7__cxx1112basic_stringIcSt11char_traitsIcESaIcEE11_M_is_localEv.exit.thread.i.i.i.i, label %_ZNKSt7__cxx1112basic_stringIcSt11char_traitsIcESaIcEE11_M_is_localEv.exit.i.i.i.i

_ZNKSt7__cxx1112basic_stringIcSt11char_traitsIcESaIcEE11_M_is_localEv.exit.thread.i.i.i.i: ; preds = %5
  %9 = getelementptr inbounds i8, ptr %2, i64 8
  %10 = load i64, ptr %9, align 8
  %11 = icmp ult i64 %10, 16
  call void @llvm.assume(i1 %11)
  br label %_ZN3nix20NixStringContextElem7DrvDeepD2Ev.exit

_ZNKSt7__cxx1112basic_stringIcSt11char_traitsIcESaIcEE11_M_is_localEv.exit.i.i.i.i: ; preds = %5
  call void @_ZdlPv(ptr noundef %6) #20
  br label %_ZN3nix20NixStringContextElem7DrvDeepD2Ev.exit

_ZN3nix20NixStringContextElem7DrvDeepD2Ev.exit:   ; preds = %_ZNKSt7__cxx1112basic_stringIcSt11char_traitsIcESaIcEE11_M_is_localEv.exit.thread.i.i.i.i, %_ZNKSt7__cxx1112basic_stringIcSt11char_traitsIcESaIcEE11_M_is_localEv.exit.i.i.i.i
  call void @_ZNSaIcED2Ev(ptr noundef nonnull align 1 dereferenceable(1) %2) #19
  %12 = load ptr, ptr %3, align 8
  %.not.i = icmp eq ptr %12, null
  br i1 %.not.i, label %17, label %13

13:                                               ; preds = %_ZN3nix20NixStringContextElem7DrvDeepD2Ev.exit
  %14 = load ptr, ptr %12, align 8
  %15 = getelementptr inbounds i8, ptr %14, i64 16
  %16 = load ptr, ptr %15, align 8
  invoke void %16(ptr noundef nonnull align 8 dereferenceable(8) %12)
          to label %17 unwind label %25

17:                                               ; preds = %13, %_ZN3nix20NixStringContextElem7DrvDeepD2Ev.exit
  %18 = getelementptr inbounds i8, ptr %3, i64 8
  %19 = load ptr, ptr %18, align 8
  %20 = getelementptr inbounds i8, ptr %3, i64 24
  %21 = icmp eq ptr %19, %20
  br i1 %21, label %_ZNKSt7__cxx1112basic_stringIcSt11char_traitsIcESaIcEE11_M_is_localEv.exit.thread.i.i.i, label %_ZNKSt7__cxx1112basic_stringIcSt11char_traitsIcESaIcEE11_M_is_localEv.exit.i.i.i

_ZNKSt7__cxx1112basic_stringIcSt11char_traitsIcESaIcEE11_M_is_localEv.exit.thread.i.i.i: ; preds = %17
  %22 = getelementptr inbounds i8, ptr %3, i64 16
  %23 = load i64, ptr %22, align 8
  %24 = icmp ult i64 %23, 16
  call void @llvm.assume(i1 %24)
  br label %_ZN2rc3GenIN3nix9StorePathEED2Ev.exit

_ZNKSt7__cxx1112basic_stringIcSt11char_traitsIcESaIcEE11_M_is_localEv.exit.i.i.i: ; preds = %17
  call void @_ZdlPv(ptr noundef %19) #20
  br label %_ZN2rc3GenIN3nix9StorePathEED2Ev.exit

25:                                               ; preds = %13
  %26 = landingpad { ptr, i32 }
          catch ptr null
  %27 = extractvalue { ptr, i32 } %26, 0
  call void @__clang_call_terminate(ptr %27) #21
  unreachable

_ZN2rc3GenIN3nix9StorePathEED2Ev.exit:            ; preds = %_ZNKSt7__cxx1112basic_stringIcSt11char_traitsIcESaIcEE11_M_is_localEv.exit.thread.i.i.i, %_ZNKSt7__cxx1112basic_stringIcSt11char_traitsIcESaIcEE11_M_is_localEv.exit.i.i.i
  call void @_ZNSaIcED2Ev(ptr noundef nonnull align 1 dereferenceable(1) %18) #19
  ret void

28:                                               ; preds = %1
  %29 = landingpad { ptr, i32 }
          cleanup
  br label %32

30:                                               ; preds = %4
  %31 = landingpad { ptr, i32 }
          cleanup
  call void @_ZN3nix20NixStringContextElem7DrvDeepD2Ev(ptr noundef nonnull align 8 dereferenceable(32) %2) #19
  br label %32

32:                                               ; preds = %30, %28
  %.pn = phi { ptr, i32 } [ %31, %30 ], [ %29, %28 ]
  call void @_ZN2rc3GenIN3nix9StorePathEED2Ev(ptr noundef nonnull align 8 dereferenceable(40) %3) #19
  resume { ptr, i32 } %.pn
}